target datalayout = "e-m:e-p270:32:32-p271:32:32-p272:64:64-i64:64-i128:128-f80:128-n8:16:32:64-S128"
target triple = "x86_64-pc-linux-gnu"

@.str.4 = private unnamed_addr constant [15 x i8] c"malloc failure\00", align 1
@.str.5 = private unnamed_addr constant [37 x i8] c"function should not have been called\00", align 1
@.str.6 = private unnamed_addr constant [24 x i8] c"passed a null parameter\00", align 1
@.str.7 = private unnamed_addr constant [15 x i8] c"internal error\00", align 1
@.str.8 = private unnamed_addr constant [9 x i8] c"overflow\00", align 1
@kOpenSSLReasonValues = external constant [0 x i32], align 4
@kOpenSSLReasonValuesLen = external constant i64, align 8
@kOpenSSLReasonStringData = external constant [0 x i8], align 1

; Function Attrs: inlinehint nounwind uwtable
define available_externally ptr @bsearch(ptr noundef nonnull %0, ptr noundef nonnull %1, i64 noundef %2, i64 noundef %3, ptr noundef nonnull %4) #9 {
  %6 = alloca ptr, align 8
  %7 = alloca ptr, align 8
  %8 = alloca ptr, align 8
  %9 = alloca i64, align 8
  %10 = alloca i64, align 8
  %11 = alloca ptr, align 8
  %12 = alloca i64, align 8
  %13 = alloca i64, align 8
  %14 = alloca i64, align 8
  %15 = alloca ptr, align 8
  %16 = alloca i32, align 4
  %17 = alloca i32, align 4
  store ptr %0, ptr %7, align 8, !tbaa !37
  store ptr %1, ptr %8, align 8, !tbaa !37
  store i64 %2, ptr %9, align 8, !tbaa !34
  store i64 %3, ptr %10, align 8, !tbaa !34
  store ptr %4, ptr %11, align 8, !tbaa !37
  call void @llvm.lifetime.start.p0(i64 8, ptr %12) #12
  call void @llvm.lifetime.start.p0(i64 8, ptr %13) #12
  call void @llvm.lifetime.start.p0(i64 8, ptr %14) #12
  call void @llvm.lifetime.start.p0(i64 8, ptr %15) #12
  call void @llvm.lifetime.start.p0(i64 4, ptr %16) #12
  store i64 0, ptr %12, align 8, !tbaa !34
  %18 = load i64, ptr %9, align 8, !tbaa !34
  store i64 %18, ptr %13, align 8, !tbaa !34
  br label %19

19:                                               ; preds = %50, %5
  %20 = load i64, ptr %12, align 8, !tbaa !34
  %21 = load i64, ptr %13, align 8, !tbaa !34
  %22 = icmp ult i64 %20, %21
  br i1 %22, label %23, label %51

23:                                               ; preds = %19
  %24 = load i64, ptr %12, align 8, !tbaa !34
  %25 = load i64, ptr %13, align 8, !tbaa !34
  %26 = add i64 %24, %25
  %27 = udiv i64 %26, 2
  store i64 %27, ptr %14, align 8, !tbaa !34
  %28 = load ptr, ptr %8, align 8, !tbaa !37
  %29 = load i64, ptr %14, align 8, !tbaa !34
  %30 = load i64, ptr %10, align 8, !tbaa !34
  %31 = mul i64 %29, %30
  %32 = getelementptr inbounds nuw i8, ptr %28, i64 %31
  store ptr %32, ptr %15, align 8, !tbaa !37
  %33 = load ptr, ptr %11, align 8, !tbaa !37
  %34 = load ptr, ptr %7, align 8, !tbaa !37
  %35 = load ptr, ptr %15, align 8, !tbaa !37
  %36 = call i32 %33(ptr noundef %34, ptr noundef %35)
  store i32 %36, ptr %16, align 4, !tbaa !6
  %37 = load i32, ptr %16, align 4, !tbaa !6
  %38 = icmp slt i32 %37, 0
  br i1 %38, label %39, label %41

39:                                               ; preds = %23
  %40 = load i64, ptr %14, align 8, !tbaa !34
  store i64 %40, ptr %13, align 8, !tbaa !34
  br label %50

41:                                               ; preds = %23
  %42 = load i32, ptr %16, align 4, !tbaa !6
  %43 = icmp sgt i32 %42, 0
  br i1 %43, label %44, label %47

44:                                               ; preds = %41
  %45 = load i64, ptr %14, align 8, !tbaa !34
  %46 = add i64 %45, 1
  store i64 %46, ptr %12, align 8, !tbaa !34
  br label %49

47:                                               ; preds = %41
  %48 = load ptr, ptr %15, align 8, !tbaa !37
  store ptr %48, ptr %6, align 8
  store i32 1, ptr %17, align 4
  br label %52

49:                                               ; preds = %44
  br label %50

50:                                               ; preds = %49, %39
  br label %19, !llvm.loop !46

51:                                               ; preds = %19
  store ptr null, ptr %6, align 8
  store i32 1, ptr %17, align 4
  br label %52

52:                                               ; preds = %51, %47
  call void @llvm.lifetime.end.p0(i64 4, ptr %16) #12
  call void @llvm.lifetime.end.p0(i64 8, ptr %15) #12
  call void @llvm.lifetime.end.p0(i64 8, ptr %14) #12
  call void @llvm.lifetime.end.p0(i64 8, ptr %13) #12
  call void @llvm.lifetime.end.p0(i64 8, ptr %12) #12
  %53 = load ptr, ptr %6, align 8
  ret ptr %53
}

; Function Attrs: nounwind uwtable
define internal ptr @err_string_lookup(i32 noundef %0, i32 noundef %1, ptr noundef %2, i64 noundef %3, ptr noundef %4) #0 {
  %6 = alloca ptr, align 8
  %7 = alloca i32, align 4
  %8 = alloca i32, align 4
  %9 = alloca ptr, align 8
  %10 = alloca i64, align 8
  %11 = alloca ptr, align 8
  %12 = alloca i32, align 4
  %13 = alloca ptr, align 8
  %14 = alloca i32, align 4
  store i32 %0, ptr %7, align 4, !tbaa !6
  store i32 %1, ptr %8, align 4, !tbaa !6
  store ptr %2, ptr %9, align 8, !tbaa !13
  store i64 %3, ptr %10, align 8, !tbaa !34
  store ptr %4, ptr %11, align 8, !tbaa !27
  %15 = load i32, ptr %7, align 4, !tbaa !6
  %16 = icmp uge i32 %15, 64
  br i1 %16, label %20, label %17

17:                                               ; preds = %5
  %18 = load i32, ptr %8, align 4, !tbaa !6
  %19 = icmp uge i32 %18, 2048
  br i1 %19, label %20, label %21

20:                                               ; preds = %17, %5
  store ptr null, ptr %6, align 8
  br label %41

21:                                               ; preds = %17
  call void @llvm.lifetime.start.p0(i64 4, ptr %12) #12
  %22 = load i32, ptr %7, align 4, !tbaa !6
  %23 = shl i32 %22, 26
  %24 = load i32, ptr %8, align 4, !tbaa !6
  %25 = shl i32 %24, 15
  %26 = or i32 %23, %25
  store i32 %26, ptr %12, align 4, !tbaa !6
  call void @llvm.lifetime.start.p0(i64 8, ptr %13) #12
  %27 = load ptr, ptr %9, align 8, !tbaa !13
  %28 = load i64, ptr %10, align 8, !tbaa !34
  %29 = call ptr @bsearch(ptr noundef %12, ptr noundef %27, i64 noundef %28, i64 noundef 4, ptr noundef @err_string_cmp)
  store ptr %29, ptr %13, align 8, !tbaa !13
  %30 = load ptr, ptr %13, align 8, !tbaa !13
  %31 = icmp eq ptr %30, null
  br i1 %31, label %32, label %33

32:                                               ; preds = %21
  store ptr null, ptr %6, align 8
  store i32 1, ptr %14, align 4
  br label %40

33:                                               ; preds = %21
  %34 = load ptr, ptr %11, align 8, !tbaa !27
  %35 = load ptr, ptr %13, align 8, !tbaa !13
  %36 = load i32, ptr %35, align 4, !tbaa !6
  %37 = and i32 %36, 32767
  %38 = zext i32 %37 to i64
  %39 = getelementptr inbounds nuw i8, ptr %34, i64 %38
  store ptr %39, ptr %6, align 8
  store i32 1, ptr %14, align 4
  br label %40

40:                                               ; preds = %33, %32
  call void @llvm.lifetime.end.p0(i64 8, ptr %13) #12
  call void @llvm.lifetime.end.p0(i64 4, ptr %12) #12
  br label %41

41:                                               ; preds = %40, %20
  %42 = load ptr, ptr %6, align 8
  ret ptr %42
}

; Function Attrs: nounwind uwtable
define hidden ptr @ERR_reason_error_string(i32 noundef %0) #0 {
  %2 = alloca ptr, align 8
  %3 = alloca i32, align 4
  %4 = alloca i32, align 4
  %5 = alloca i32, align 4
  %6 = alloca i32, align 4
  store i32 %0, ptr %3, align 4, !tbaa !6
  call void @llvm.lifetime.start.p0(i64 4, ptr %4) #12
  %7 = load i32, ptr %3, align 4, !tbaa !6
  %8 = lshr i32 %7, 24
  %9 = and i32 %8, 255
  store i32 %9, ptr %4, align 4, !tbaa !6
  call void @llvm.lifetime.start.p0(i64 4, ptr %5) #12
  %10 = load i32, ptr %3, align 4, !tbaa !6
  %11 = and i32 %10, 4095
  store i32 %11, ptr %5, align 4, !tbaa !6
  %12 = load i32, ptr %4, align 4, !tbaa !6
  %13 = icmp eq i32 %12, 2
  br i1 %13, label %14, label %21

14:                                               ; preds = %1
  %15 = load i32, ptr %5, align 4, !tbaa !6
  %16 = icmp ult i32 %15, 127
  br i1 %16, label %17, label %20

17:                                               ; preds = %14
  %18 = load i32, ptr %5, align 4, !tbaa !6
  %19 = call ptr @strerror(i32 noundef %18) #12
  store ptr %19, ptr %2, align 8
  store i32 1, ptr %6, align 4
  br label %45

20:                                               ; preds = %14
  store ptr null, ptr %2, align 8
  store i32 1, ptr %6, align 4
  br label %45

21:                                               ; preds = %1
  %22 = load i32, ptr %5, align 4, !tbaa !6
  %23 = icmp ult i32 %22, 33
  br i1 %23, label %24, label %29

24:                                               ; preds = %21
  %25 = load i32, ptr %5, align 4, !tbaa !6
  %26 = zext i32 %25 to i64
  %27 = getelementptr inbounds nuw [33 x ptr], ptr @kLibraryNames, i64 0, i64 %26
  %28 = load ptr, ptr %27, align 8, !tbaa !27
  store ptr %28, ptr %2, align 8
  store i32 1, ptr %6, align 4
  br label %45

29:                                               ; preds = %21
  %30 = load i32, ptr %5, align 4, !tbaa !6
  %31 = icmp ult i32 %30, 100
  br i1 %31, label %32, label %40

32:                                               ; preds = %29
  %33 = load i32, ptr %5, align 4, !tbaa !6
  switch i32 %33, label %39 [
    i32 65, label %34
    i32 66, label %35
    i32 67, label %36
    i32 68, label %37
    i32 69, label %38
  ]

34:                                               ; preds = %32
  store ptr @.str.4, ptr %2, align 8
  store i32 1, ptr %6, align 4
  br label %45

35:                                               ; preds = %32
  store ptr @.str.5, ptr %2, align 8
  store i32 1, ptr %6, align 4
  br label %45

36:                                               ; preds = %32
  store ptr @.str.6, ptr %2, align 8
  store i32 1, ptr %6, align 4
  br label %45

37:                                               ; preds = %32
  store ptr @.str.7, ptr %2, align 8
  store i32 1, ptr %6, align 4
  br label %45

38:                                               ; preds = %32
  store ptr @.str.8, ptr %2, align 8
  store i32 1, ptr %6, align 4
  br label %45

39:                                               ; preds = %32
  store ptr null, ptr %2, align 8
  store i32 1, ptr %6, align 4
  br label %45

40:                                               ; preds = %29
  %41 = load i32, ptr %4, align 4, !tbaa !6
  %42 = load i32, ptr %5, align 4, !tbaa !6
  %43 = load i64, ptr @kOpenSSLReasonValuesLen, align 8, !tbaa !34
  %44 = call ptr @err_string_lookup(i32 noundef %41, i32 noundef %42, ptr noundef @kOpenSSLReasonValues, i64 noundef %43, ptr noundef @kOpenSSLReasonStringData)
  store ptr %44, ptr %2, align 8
  store i32 1, ptr %6, align 4
  br label %45

45:                                               ; preds = %40, %39, %38, %37, %36, %35, %34, %24, %20, %17
  call void @llvm.lifetime.end.p0(i64 4, ptr %5) #12
  call void @llvm.lifetime.end.p0(i64 4, ptr %4) #12
  %46 = load ptr, ptr %2, align 8
  ret ptr %46
}