; Function Attrs: nounwind uwtable
define hidden ptr @ERR_reason_error_string(i32 noundef %0) local_unnamed_addr #0 {
  %2 = lshr i32 %0, 24
  %3 = and i32 %0, 4095
  %4 = icmp eq i32 %2, 2
  br i1 %4, label %5, label %9

5:                                                ; preds = %1
  %6 = icmp samesign ult i32 %3, 127
  br i1 %6, label %7, label %err_string_lookup.exit

7:                                                ; preds = %5
  %8 = tail call ptr @strerror(i32 noundef %3) #17
  br label %err_string_lookup.exit

9:                                                ; preds = %1
  %10 = icmp samesign ult i32 %3, 33
  br i1 %10, label %11, label %15

11:                                               ; preds = %9
  %12 = zext nneg i32 %3 to i64
  %13 = getelementptr inbounds nuw [33 x ptr], ptr @kLibraryNames, i64 0, i64 %12
  %14 = load ptr, ptr %13, align 8, !tbaa !20
  br label %err_string_lookup.exit

15:                                               ; preds = %9
  %16 = icmp samesign ult i32 %3, 100
  br i1 %16, label %17, label %19

17:                                               ; preds = %15
  %switch.tableidx = add nsw i32 %3, -65
  %18 = icmp ult i32 %switch.tableidx, 5
  br i1 %18, label %switch.lookup, label %err_string_lookup.exit

19:                                               ; preds = %15
  %20 = icmp ugt i32 %0, 1073741823
  %21 = icmp samesign ugt i32 %3, 2047
  %or.cond.i = select i1 %20, i1 true, i1 %21
  br i1 %or.cond.i, label %err_string_lookup.exit, label %22

22:                                               ; preds = %19
  %23 = load i64, ptr @kOpenSSLReasonValuesLen, align 8, !tbaa !26
  %24 = shl nuw nsw i32 %2, 11
  %25 = or disjoint i32 %24, %3
  %.not24.i.i = icmp eq i64 %23, 0
  br i1 %.not24.i.i, label %err_string_lookup.exit, label %.lr.ph.i.i

.lr.ph.i.i:                                       ; preds = %22, %36
  %.01621.i.i = phi i64 [ %.1.i.i, %36 ], [ 0, %22 ]
  %.01720.i.i = phi i64 [ %.118.i.i, %36 ], [ %23, %22 ]
  %26 = add i64 %.01720.i.i, %.01621.i.i
  %27 = lshr i64 %26, 1
  %28 = shl i64 %27, 2
  %29 = getelementptr inbounds nuw i8, ptr @kOpenSSLReasonValues, i64 %28
  %30 = load i32, ptr %29, align 4, !tbaa !22
  %31 = lshr i32 %30, 15
  %32 = icmp samesign ult i32 %25, %31
  br i1 %32, label %36, label %33

33:                                               ; preds = %.lr.ph.i.i
  %.not.i.i = icmp eq i32 %25, %31
  br i1 %.not.i.i, label %bsearch.exit.i, label %34

34:                                               ; preds = %33
  %35 = add nuw i64 %27, 1
  br label %36

36:                                               ; preds = %34, %.lr.ph.i.i
  %.118.i.i = phi i64 [ %.01720.i.i, %34 ], [ %27, %.lr.ph.i.i ]
  %.1.i.i = phi i64 [ %35, %34 ], [ %.01621.i.i, %.lr.ph.i.i ]
  %37 = icmp ult i64 %.1.i.i, %.118.i.i
  br i1 %37, label %.lr.ph.i.i, label %err_string_lookup.exit, !llvm.loop !28

bsearch.exit.i:                                   ; preds = %33
  %38 = and i32 %30, 32767
  %39 = zext nneg i32 %38 to i64
  %40 = getelementptr inbounds nuw i8, ptr @kOpenSSLReasonStringData, i64 %39
  br label %err_string_lookup.exit

switch.lookup:                                    ; preds = %17
  %41 = zext nneg i32 %switch.tableidx to i64
  %switch.gep = getelementptr inbounds nuw [5 x ptr], ptr @switch.table.ERR_reason_error_string, i64 0, i64 %41
  %switch.load = load ptr, ptr %switch.gep, align 8
  br label %err_string_lookup.exit

err_string_lookup.exit:                           ; preds = %36, %17, %switch.lookup, %bsearch.exit.i, %22, %19, %5, %11, %7
  %.0 = phi ptr [ %8, %7 ], [ %14, %11 ], [ null, %5 ], [ null, %19 ], [ %40, %bsearch.exit.i ], [ null, %22 ], [ %switch.load, %switch.lookup ], [ null, %17 ], [ null, %36 ]
  ret ptr %.0
}